target datalayout = "e-m:e-p270:32:32-p271:32:32-p272:64:64-i64:64-i128:128-f80:128-n8:16:32:64-S128"
target triple = "x86_64-pc-linux-gnu"

%struct.IDAMemRec = type { double, ptr, ptr, i32, double, double, ptr, i32, ptr, ptr, i32, ptr, ptr, i32, i32, double, double, ptr, i32, i32, i32, ptr, ptr, i32, ptr, ptr, ptr, i32, double, i32, i32, double, ptr, ptr, i32, ptr, ptr, i32, i32, i32, double, ptr, ptr, [6 x ptr], [6 x double], [6 x double], [6 x double], [6 x double], [6 x double], ptr, ptr, ptr, ptr, ptr, ptr, ptr, ptr, ptr, ptr, ptr, ptr, ptr, ptr, ptr, [6 x ptr], ptr, ptr, ptr, ptr, [6 x ptr], ptr, ptr, ptr, ptr, ptr, ptr, ptr, ptr, ptr, ptr, ptr, ptr, ptr, ptr, [6 x ptr], ptr, ptr, ptr, ptr, ptr, double, ptr, ptr, i32, i32, i32, i32, i32, i32, i32, double, double, double, i32, double, i32, i32, i32, i32, double, double, double, double, double, double, double, double, double, double, double, double, double, double, i32, i32, i32, i32, i32, i64, double, i32, i64, i64, i64, i64, i64, i64, i64, i64, i64, i64, i64, i64, i64, i64, i64, i64, i64, i64, i64, i64, i64, i64, i64, i64, ptr, ptr, ptr, i32, i32, i32, i32, i32, i32, i32, i32, i32, i32, i32, i32, i32, ptr, ptr, ptr, ptr, ptr, ptr, i32, i32, i32, i32, i32, i32, double, double, double, ptr, i32, ptr, ptr, double, double, double, ptr, ptr, ptr, double, double, i32, i32, i64, ptr, i32, i32, ptr, i32 }

; Function Attrs: nounwind uwtable
define internal i32 @IDAQuadSensEwtSetSV(ptr noundef %0, ptr noundef %1, ptr noundef %2) #0 {
  %4 = alloca i32, align 4
  %5 = alloca ptr, align 8
  %6 = alloca ptr, align 8
  %7 = alloca ptr, align 8
  %8 = alloca i32, align 4
  %9 = alloca ptr, align 8
  %10 = alloca i32, align 4
  store ptr %0, ptr %5, align 8, !tbaa !3
  store ptr %1, ptr %6, align 8, !tbaa !94
  store ptr %2, ptr %7, align 8, !tbaa !94
  call void @llvm.lifetime.start.p0(i64 4, ptr %8) #8
  call void @llvm.lifetime.start.p0(i64 8, ptr %9) #8
  %11 = load ptr, ptr %5, align 8, !tbaa !3
  %12 = getelementptr inbounds nuw %struct.IDAMemRec, ptr %11, i32 0, i32 66
  %13 = load ptr, ptr %12, align 8, !tbaa !164
  store ptr %13, ptr %9, align 8, !tbaa !93
  store i32 0, ptr %8, align 4, !tbaa !88
  br label %14

14:                                               ; preds = %50, %3
  %15 = load i32, ptr %8, align 4, !tbaa !88
  %16 = load ptr, ptr %5, align 8, !tbaa !3
  %17 = getelementptr inbounds nuw %struct.IDAMemRec, ptr %16, i32 0, i32 19
  %18 = load i32, ptr %17, align 4, !tbaa !173
  %19 = icmp slt i32 %15, %18
  br i1 %19, label %20, label %53

20:                                               ; preds = %14
  %21 = load ptr, ptr %6, align 8, !tbaa !94
  %22 = load i32, ptr %8, align 4, !tbaa !88
  %23 = sext i32 %22 to i64
  %24 = getelementptr inbounds ptr, ptr %21, i64 %23
  %25 = load ptr, ptr %24, align 8, !tbaa !93
  %26 = load ptr, ptr %9, align 8, !tbaa !93
  call void @N_VAbs(ptr noundef %25, ptr noundef %26)
  %27 = load ptr, ptr %5, align 8, !tbaa !3
  %28 = getelementptr inbounds nuw %struct.IDAMemRec, ptr %27, i32 0, i32 40
  %29 = load double, ptr %28, align 8, !tbaa !216
  %30 = load ptr, ptr %9, align 8, !tbaa !93
  %31 = load ptr, ptr %5, align 8, !tbaa !3
  %32 = getelementptr inbounds nuw %struct.IDAMemRec, ptr %31, i32 0, i32 42
  %33 = load ptr, ptr %32, align 8, !tbaa !220
  %34 = load i32, ptr %8, align 4, !tbaa !88
  %35 = sext i32 %34 to i64
  %36 = getelementptr inbounds ptr, ptr %33, i64 %35
  %37 = load ptr, ptr %36, align 8, !tbaa !93
  %38 = load ptr, ptr %9, align 8, !tbaa !93
  call void @N_VLinearSum(double noundef %29, ptr noundef %30, double noundef 1.000000e+00, ptr noundef %37, ptr noundef %38)
  %39 = load ptr, ptr %9, align 8, !tbaa !93
  %40 = call double @N_VMin(ptr noundef %39)
  %41 = fcmp ole double %40, 0.000000e+00
  br i1 %41, label %42, label %43

42:                                               ; preds = %20
  store i32 -1, ptr %4, align 4
  store i32 1, ptr %10, align 4
  br label %54

43:                                               ; preds = %20
  %44 = load ptr, ptr %9, align 8, !tbaa !93
  %45 = load ptr, ptr %7, align 8, !tbaa !94
  %46 = load i32, ptr %8, align 4, !tbaa !88
  %47 = sext i32 %46 to i64
  %48 = getelementptr inbounds ptr, ptr %45, i64 %47
  %49 = load ptr, ptr %48, align 8, !tbaa !93
  call void @N_VInv(ptr noundef %44, ptr noundef %49)
  br label %50

50:                                               ; preds = %43
  %51 = load i32, ptr %8, align 4, !tbaa !88
  %52 = add nsw i32 %51, 1
  store i32 %52, ptr %8, align 4, !tbaa !88
  br label %14, !llvm.loop !289

53:                                               ; preds = %14
  store i32 0, ptr %4, align 4
  store i32 1, ptr %10, align 4
  br label %54

54:                                               ; preds = %53, %42
  call void @llvm.lifetime.end.p0(i64 8, ptr %9) #8
  call void @llvm.lifetime.end.p0(i64 4, ptr %8) #8
  %55 = load i32, ptr %4, align 4
  ret i32 %55
}

; Function Attrs: nounwind uwtable
define internal i32 @IDAQuadSensEwtSetSS(ptr noundef %0, ptr noundef %1, ptr noundef %2) #0 {
  %4 = alloca i32, align 4
  %5 = alloca ptr, align 8
  %6 = alloca ptr, align 8
  %7 = alloca ptr, align 8
  %8 = alloca i32, align 4
  %9 = alloca ptr, align 8
  %10 = alloca i32, align 4
  store ptr %0, ptr %5, align 8, !tbaa !3
  store ptr %1, ptr %6, align 8, !tbaa !94
  store ptr %2, ptr %7, align 8, !tbaa !94
  call void @llvm.lifetime.start.p0(i64 4, ptr %8) #8
  call void @llvm.lifetime.start.p0(i64 8, ptr %9) #8
  %11 = load ptr, ptr %5, align 8, !tbaa !3
  %12 = getelementptr inbounds nuw %struct.IDAMemRec, ptr %11, i32 0, i32 66
  %13 = load ptr, ptr %12, align 8, !tbaa !164
  store ptr %13, ptr %9, align 8, !tbaa !93
  store i32 0, ptr %8, align 4, !tbaa !88
  br label %14

14:                                               ; preds = %52, %3
  %15 = load i32, ptr %8, align 4, !tbaa !88
  %16 = load ptr, ptr %5, align 8, !tbaa !3
  %17 = getelementptr inbounds nuw %struct.IDAMemRec, ptr %16, i32 0, i32 19
  %18 = load i32, ptr %17, align 4, !tbaa !173
  %19 = icmp slt i32 %15, %18
  br i1 %19, label %20, label %55

20:                                               ; preds = %14
  %21 = load ptr, ptr %6, align 8, !tbaa !94
  %22 = load i32, ptr %8, align 4, !tbaa !88
  %23 = sext i32 %22 to i64
  %24 = getelementptr inbounds ptr, ptr %21, i64 %23
  %25 = load ptr, ptr %24, align 8, !tbaa !93
  %26 = load ptr, ptr %9, align 8, !tbaa !93
  call void @N_VAbs(ptr noundef %25, ptr noundef %26)
  %27 = load ptr, ptr %5, align 8, !tbaa !3
  %28 = getelementptr inbounds nuw %struct.IDAMemRec, ptr %27, i32 0, i32 40
  %29 = load double, ptr %28, align 8, !tbaa !216
  %30 = load ptr, ptr %9, align 8, !tbaa !93
  %31 = load ptr, ptr %9, align 8, !tbaa !93
  call void @N_VScale(double noundef %29, ptr noundef %30, ptr noundef %31)
  %32 = load ptr, ptr %9, align 8, !tbaa !93
  %33 = load ptr, ptr %5, align 8, !tbaa !3
  %34 = getelementptr inbounds nuw %struct.IDAMemRec, ptr %33, i32 0, i32 41
  %35 = load ptr, ptr %34, align 8, !tbaa !217
  %36 = load i32, ptr %8, align 4, !tbaa !88
  %37 = sext i32 %36 to i64
  %38 = getelementptr inbounds double, ptr %35, i64 %37
  %39 = load double, ptr %38, align 8, !tbaa !92
  %40 = load ptr, ptr %9, align 8, !tbaa !93
  call void @N_VAddConst(ptr noundef %32, double noundef %39, ptr noundef %40)
  %41 = load ptr, ptr %9, align 8, !tbaa !93
  %42 = call double @N_VMin(ptr noundef %41)
  %43 = fcmp ole double %42, 0.000000e+00
  br i1 %43, label %44, label %45

44:                                               ; preds = %20
  store i32 -1, ptr %4, align 4
  store i32 1, ptr %10, align 4
  br label %56

45:                                               ; preds = %20
  %46 = load ptr, ptr %9, align 8, !tbaa !93
  %47 = load ptr, ptr %7, align 8, !tbaa !94
  %48 = load i32, ptr %8, align 4, !tbaa !88
  %49 = sext i32 %48 to i64
  %50 = getelementptr inbounds ptr, ptr %47, i64 %49
  %51 = load ptr, ptr %50, align 8, !tbaa !93
  call void @N_VInv(ptr noundef %46, ptr noundef %51)
  br label %52

52:                                               ; preds = %45
  %53 = load i32, ptr %8, align 4, !tbaa !88
  %54 = add nsw i32 %53, 1
  store i32 %54, ptr %8, align 4, !tbaa !88
  br label %14, !llvm.loop !288

55:                                               ; preds = %14
  store i32 0, ptr %4, align 4
  store i32 1, ptr %10, align 4
  br label %56

56:                                               ; preds = %55, %44
  call void @llvm.lifetime.end.p0(i64 8, ptr %9) #8
  call void @llvm.lifetime.end.p0(i64 4, ptr %8) #8
  %57 = load i32, ptr %4, align 4
  ret i32 %57
}

; Function Attrs: nounwind uwtable
define internal i32 @IDAQuadSensEwtSetEE(ptr noundef %0, ptr noundef %1, ptr noundef %2) #0 {
  %4 = alloca i32, align 4
  %5 = alloca ptr, align 8
  %6 = alloca ptr, align 8
  %7 = alloca ptr, align 8
  %8 = alloca i32, align 4
  %9 = alloca ptr, align 8
  %10 = alloca i32, align 4
  %11 = alloca i32, align 4
  store ptr %0, ptr %5, align 8, !tbaa !3
  store ptr %1, ptr %6, align 8, !tbaa !94
  store ptr %2, ptr %7, align 8, !tbaa !94
  call void @llvm.lifetime.start.p0(i64 4, ptr %8) #8
  call void @llvm.lifetime.start.p0(i64 8, ptr %9) #8
  call void @llvm.lifetime.start.p0(i64 4, ptr %10) #8
  %12 = load ptr, ptr %5, align 8, !tbaa !3
  %13 = getelementptr inbounds nuw %struct.IDAMemRec, ptr %12, i32 0, i32 88
  %14 = load ptr, ptr %13, align 8, !tbaa !209
  %15 = getelementptr inbounds ptr, ptr %14, i64 0
  %16 = load ptr, ptr %15, align 8, !tbaa !93
  store ptr %16, ptr %9, align 8, !tbaa !93
  store i32 0, ptr %8, align 4, !tbaa !88
  br label %17

17:                                               ; preds = %66, %3
  %18 = load i32, ptr %8, align 4, !tbaa !88
  %19 = load ptr, ptr %5, align 8, !tbaa !3
  %20 = getelementptr inbounds nuw %struct.IDAMemRec, ptr %19, i32 0, i32 19
  %21 = load i32, ptr %20, align 4, !tbaa !173
  %22 = icmp slt i32 %18, %21
  br i1 %22, label %23, label %69

23:                                               ; preds = %17
  %24 = load ptr, ptr %5, align 8, !tbaa !3
  %25 = getelementptr inbounds nuw %struct.IDAMemRec, ptr %24, i32 0, i32 25
  %26 = load ptr, ptr %25, align 8, !tbaa !60
  %27 = load i32, ptr %8, align 4, !tbaa !88
  %28 = sext i32 %27 to i64
  %29 = getelementptr inbounds double, ptr %26, i64 %28
  %30 = load double, ptr %29, align 8, !tbaa !92
  %31 = load ptr, ptr %6, align 8, !tbaa !94
  %32 = load i32, ptr %8, align 4, !tbaa !88
  %33 = sext i32 %32 to i64
  %34 = getelementptr inbounds ptr, ptr %31, i64 %33
  %35 = load ptr, ptr %34, align 8, !tbaa !93
  %36 = load ptr, ptr %9, align 8, !tbaa !93
  call void @N_VScale(double noundef %30, ptr noundef %35, ptr noundef %36)
  %37 = load ptr, ptr %5, align 8, !tbaa !3
  %38 = load ptr, ptr %9, align 8, !tbaa !93
  %39 = load ptr, ptr %7, align 8, !tbaa !94
  %40 = load i32, ptr %8, align 4, !tbaa !88
  %41 = sext i32 %40 to i64
  %42 = getelementptr inbounds ptr, ptr %39, i64 %41
  %43 = load ptr, ptr %42, align 8, !tbaa !93
  %44 = call i32 @IDAQuadEwtSet(ptr noundef %37, ptr noundef %38, ptr noundef %43)
  store i32 %44, ptr %10, align 4, !tbaa !88
  %45 = load i32, ptr %10, align 4, !tbaa !88
  %46 = icmp ne i32 %45, 0
  br i1 %46, label %47, label %48

47:                                               ; preds = %23
  store i32 -1, ptr %4, align 4
  store i32 1, ptr %11, align 4
  br label %70

48:                                               ; preds = %23
  %49 = load ptr, ptr %5, align 8, !tbaa !3
  %50 = getelementptr inbounds nuw %struct.IDAMemRec, ptr %49, i32 0, i32 25
  %51 = load ptr, ptr %50, align 8, !tbaa !60
  %52 = load i32, ptr %8, align 4, !tbaa !88
  %53 = sext i32 %52 to i64
  %54 = getelementptr inbounds double, ptr %51, i64 %53
  %55 = load double, ptr %54, align 8, !tbaa !92
  %56 = load ptr, ptr %7, align 8, !tbaa !94
  %57 = load i32, ptr %8, align 4, !tbaa !88
  %58 = sext i32 %57 to i64
  %59 = getelementptr inbounds ptr, ptr %56, i64 %58
  %60 = load ptr, ptr %59, align 8, !tbaa !93
  %61 = load ptr, ptr %7, align 8, !tbaa !94
  %62 = load i32, ptr %8, align 4, !tbaa !88
  %63 = sext i32 %62 to i64
  %64 = getelementptr inbounds ptr, ptr %61, i64 %63
  %65 = load ptr, ptr %64, align 8, !tbaa !93
  call void @N_VScale(double noundef %55, ptr noundef %60, ptr noundef %65)
  br label %66

66:                                               ; preds = %48
  %67 = load i32, ptr %8, align 4, !tbaa !88
  %68 = add nsw i32 %67, 1
  store i32 %68, ptr %8, align 4, !tbaa !88
  br label %17, !llvm.loop !287

69:                                               ; preds = %17
  store i32 0, ptr %4, align 4
  store i32 1, ptr %11, align 4
  br label %70

70:                                               ; preds = %69, %47
  call void @llvm.lifetime.end.p0(i64 4, ptr %10) #8
  call void @llvm.lifetime.end.p0(i64 8, ptr %9) #8
  call void @llvm.lifetime.end.p0(i64 4, ptr %8) #8
  %71 = load i32, ptr %4, align 4
  ret i32 %71
}

; Function Attrs: nounwind uwtable
define i32 @IDAQuadSensEwtSet(ptr noundef %0, ptr noundef %1, ptr noundef %2) #0 {
  %4 = alloca ptr, align 8
  %5 = alloca ptr, align 8
  %6 = alloca ptr, align 8
  %7 = alloca i32, align 4
  store ptr %0, ptr %4, align 8, !tbaa !3
  store ptr %1, ptr %5, align 8, !tbaa !94
  store ptr %2, ptr %6, align 8, !tbaa !94
  call void @llvm.lifetime.start.p0(i64 4, ptr %7) #8
  store i32 0, ptr %7, align 4, !tbaa !88
  %8 = load ptr, ptr %4, align 8, !tbaa !3
  %9 = getelementptr inbounds nuw %struct.IDAMemRec, ptr %8, i32 0, i32 39
  %10 = load i32, ptr %9, align 8, !tbaa !70
  switch i32 %10, label %26 [
    i32 4, label %11
    i32 1, label %16
    i32 2, label %21
  ]

11:                                               ; preds = %3
  %12 = load ptr, ptr %4, align 8, !tbaa !3
  %13 = load ptr, ptr %5, align 8, !tbaa !94
  %14 = load ptr, ptr %6, align 8, !tbaa !94
  %15 = call i32 @IDAQuadSensEwtSetEE(ptr noundef %12, ptr noundef %13, ptr noundef %14)
  store i32 %15, ptr %7, align 4, !tbaa !88
  br label %26

16:                                               ; preds = %3
  %17 = load ptr, ptr %4, align 8, !tbaa !3
  %18 = load ptr, ptr %5, align 8, !tbaa !94
  %19 = load ptr, ptr %6, align 8, !tbaa !94
  %20 = call i32 @IDAQuadSensEwtSetSS(ptr noundef %17, ptr noundef %18, ptr noundef %19)
  store i32 %20, ptr %7, align 4, !tbaa !88
  br label %26

21:                                               ; preds = %3
  %22 = load ptr, ptr %4, align 8, !tbaa !3
  %23 = load ptr, ptr %5, align 8, !tbaa !94
  %24 = load ptr, ptr %6, align 8, !tbaa !94
  %25 = call i32 @IDAQuadSensEwtSetSV(ptr noundef %22, ptr noundef %23, ptr noundef %24)
  store i32 %25, ptr %7, align 4, !tbaa !88
  br label %26

26:                                               ; preds = %3, %21, %16, %11
  %27 = load i32, ptr %7, align 4, !tbaa !88
  call void @llvm.lifetime.end.p0(i64 4, ptr %7) #8
  ret i32 %27
}