; Function Attrs: nounwind uwtable
define range(i32 -1, 1) i32 @IDAQuadSensEwtSet(ptr noundef readonly captures(none) %0, ptr noundef readonly captures(none) %1, ptr noundef readonly captures(none) %2) local_unnamed_addr #0 {
  %4 = getelementptr inbounds nuw i8, ptr %0, i64 280
  %5 = load i32, ptr %4, align 8, !tbaa !51
  switch i32 %5, label %IDAQuadSensEwtSetEE.exit [
    i32 4, label %6
    i32 1, label %30
    i32 2, label %53
  ]

6:                                                ; preds = %3
  %7 = getelementptr inbounds nuw i8, ptr %0, i64 1032
  %8 = load ptr, ptr %7, align 8, !tbaa !173
  %9 = load ptr, ptr %8, align 8, !tbaa !57
  %10 = getelementptr inbounds nuw i8, ptr %0, i64 184
  %11 = getelementptr inbounds nuw i8, ptr %0, i64 140
  %12 = load i32, ptr %11, align 4, !tbaa !139
  %13 = icmp sgt i32 %12, 0
  br i1 %13, label %.lr.ph.i, label %IDAQuadSensEwtSetEE.exit

.lr.ph.i:                                         ; preds = %6, %22
  %indvars.iv.i = phi i64 [ %indvars.iv.next.i, %22 ], [ 0, %6 ]
  %14 = load ptr, ptr %10, align 8, !tbaa !59
  %15 = getelementptr inbounds nuw double, ptr %14, i64 %indvars.iv.i
  %16 = load double, ptr %15, align 8, !tbaa !60
  %17 = getelementptr inbounds nuw ptr, ptr %1, i64 %indvars.iv.i
  %18 = load ptr, ptr %17, align 8, !tbaa !57
  tail call void @N_VScale(double noundef %16, ptr noundef %18, ptr noundef %9) #13
  %19 = getelementptr inbounds nuw ptr, ptr %2, i64 %indvars.iv.i
  %20 = load ptr, ptr %19, align 8, !tbaa !57
  %21 = tail call fastcc i32 @IDAQuadEwtSet(ptr noundef nonnull readonly %0, ptr noundef %9, ptr noundef %20)
  %.not.i = icmp eq i32 %21, 0
  br i1 %.not.i, label %22, label %IDAQuadSensEwtSetEE.exit

22:                                               ; preds = %.lr.ph.i
  %23 = load ptr, ptr %10, align 8, !tbaa !59
  %24 = getelementptr inbounds nuw double, ptr %23, i64 %indvars.iv.i
  %25 = load double, ptr %24, align 8, !tbaa !60
  %26 = load ptr, ptr %19, align 8, !tbaa !57
  tail call void @N_VScale(double noundef %25, ptr noundef %26, ptr noundef %26) #13
  %indvars.iv.next.i = add nuw nsw i64 %indvars.iv.i, 1
  %27 = load i32, ptr %11, align 4, !tbaa !139
  %28 = sext i32 %27 to i64
  %29 = icmp slt i64 %indvars.iv.next.i, %28
  br i1 %29, label %.lr.ph.i, label %IDAQuadSensEwtSetEE.exit, !llvm.loop !306

30:                                               ; preds = %3
  %31 = getelementptr inbounds nuw i8, ptr %0, i64 776
  %32 = load ptr, ptr %31, align 8, !tbaa !125
  %33 = getelementptr inbounds nuw i8, ptr %0, i64 140
  %34 = load i32, ptr %33, align 4, !tbaa !139
  %35 = icmp sgt i32 %34, 0
  br i1 %35, label %.lr.ph.i11, label %IDAQuadSensEwtSetEE.exit

.lr.ph.i11:                                       ; preds = %30
  %36 = getelementptr inbounds nuw i8, ptr %0, i64 288
  %37 = getelementptr inbounds nuw i8, ptr %0, i64 296
  br label %38

38:                                               ; preds = %47, %.lr.ph.i11
  %indvars.iv.i12 = phi i64 [ 0, %.lr.ph.i11 ], [ %indvars.iv.next.i13, %47 ]
  %39 = getelementptr inbounds nuw ptr, ptr %1, i64 %indvars.iv.i12
  %40 = load ptr, ptr %39, align 8, !tbaa !57
  tail call void @N_VAbs(ptr noundef %40, ptr noundef %32) #13
  %41 = load double, ptr %36, align 8, !tbaa !184
  tail call void @N_VScale(double noundef %41, ptr noundef %32, ptr noundef %32) #13
  %42 = load ptr, ptr %37, align 8, !tbaa !186
  %43 = getelementptr inbounds nuw double, ptr %42, i64 %indvars.iv.i12
  %44 = load double, ptr %43, align 8, !tbaa !60
  tail call void @N_VAddConst(ptr noundef %32, double noundef %44, ptr noundef %32) #13
  %45 = tail call double @N_VMin(ptr noundef %32) #13
  %46 = fcmp ugt double %45, 0.000000e+00
  br i1 %46, label %47, label %IDAQuadSensEwtSetEE.exit

47:                                               ; preds = %38
  %48 = getelementptr inbounds nuw ptr, ptr %2, i64 %indvars.iv.i12
  %49 = load ptr, ptr %48, align 8, !tbaa !57
  tail call void @N_VInv(ptr noundef %32, ptr noundef %49) #13
  %indvars.iv.next.i13 = add nuw nsw i64 %indvars.iv.i12, 1
  %50 = load i32, ptr %33, align 4, !tbaa !139
  %51 = sext i32 %50 to i64
  %52 = icmp slt i64 %indvars.iv.next.i13, %51
  br i1 %52, label %38, label %IDAQuadSensEwtSetEE.exit, !llvm.loop !307

53:                                               ; preds = %3
  %54 = getelementptr inbounds nuw i8, ptr %0, i64 776
  %55 = load ptr, ptr %54, align 8, !tbaa !125
  %56 = getelementptr inbounds nuw i8, ptr %0, i64 140
  %57 = load i32, ptr %56, align 4, !tbaa !139
  %58 = icmp sgt i32 %57, 0
  br i1 %58, label %.lr.ph.i15, label %IDAQuadSensEwtSetEE.exit

.lr.ph.i15:                                       ; preds = %53
  %59 = getelementptr inbounds nuw i8, ptr %0, i64 288
  %60 = getelementptr inbounds nuw i8, ptr %0, i64 304
  br label %61

61:                                               ; preds = %70, %.lr.ph.i15
  %indvars.iv.i16 = phi i64 [ 0, %.lr.ph.i15 ], [ %indvars.iv.next.i17, %70 ]
  %62 = getelementptr inbounds nuw ptr, ptr %1, i64 %indvars.iv.i16
  %63 = load ptr, ptr %62, align 8, !tbaa !57
  tail call void @N_VAbs(ptr noundef %63, ptr noundef %55) #13
  %64 = load double, ptr %59, align 8, !tbaa !184
  %65 = load ptr, ptr %60, align 8, !tbaa !190
  %66 = getelementptr inbounds nuw ptr, ptr %65, i64 %indvars.iv.i16
  %67 = load ptr, ptr %66, align 8, !tbaa !57
  tail call void @N_VLinearSum(double noundef %64, ptr noundef %55, double noundef 1.000000e+00, ptr noundef %67, ptr noundef %55) #13
  %68 = tail call double @N_VMin(ptr noundef %55) #13
  %69 = fcmp ugt double %68, 0.000000e+00
  br i1 %69, label %70, label %IDAQuadSensEwtSetEE.exit

70:                                               ; preds = %61
  %71 = getelementptr inbounds nuw ptr, ptr %2, i64 %indvars.iv.i16
  %72 = load ptr, ptr %71, align 8, !tbaa !57
  tail call void @N_VInv(ptr noundef %55, ptr noundef %72) #13
  %indvars.iv.next.i17 = add nuw nsw i64 %indvars.iv.i16, 1
  %73 = load i32, ptr %56, align 4, !tbaa !139
  %74 = sext i32 %73 to i64
  %75 = icmp slt i64 %indvars.iv.next.i17, %74
  br i1 %75, label %61, label %IDAQuadSensEwtSetEE.exit, !llvm.loop !308

IDAQuadSensEwtSetEE.exit:                         ; preds = %70, %61, %47, %38, %22, %.lr.ph.i, %53, %30, %6, %3
  %.0 = phi i32 [ 0, %3 ], [ 0, %6 ], [ 0, %30 ], [ 0, %53 ], [ -1, %.lr.ph.i ], [ 0, %22 ], [ -1, %38 ], [ 0, %47 ], [ -1, %61 ], [ 0, %70 ]
  ret i32 %.0
}